target datalayout = "e-m:e-p270:32:32-p271:32:32-p272:64:64-i64:64-i128:128-f80:128-n8:16:32:64-S128"
target triple = "x86_64-pc-linux-gnu"

%struct._DtBauhausWidget = type { %struct._GtkDrawingArea, i32, ptr, ptr, i32, [256 x i8], i32, ptr, i32, ptr, ptr, i32, ptr, i32, i32, i32, %struct._GtkBorder, %struct._GtkBorder, i32, %union.dt_bauhaus_data_t }
%struct._GtkDrawingArea = type { %struct._GtkWidget, ptr }
%struct._GtkWidget = type { %struct._GObject, ptr }
%struct._GObject = type { %struct._GTypeInstance, i32, ptr }
%struct._GTypeInstance = type { ptr }
%struct._GtkBorder = type { i16, i16, i16, i16 }
%union.dt_bauhaus_data_t = type { %struct.dt_bauhaus_slider_data_t }
%struct.dt_bauhaus_slider_data_t = type { float, float, float, float, float, float, float, float, float, float, i32, ptr, i32, ptr, i8, ptr, float, float, i8, i32, ptr }
%struct.dt_bauhaus_combobox_data_t = type { i32, i32, i32, i32, ptr, i32, ptr, i32, ptr }
%struct._GPtrArray = type { ptr, i32 }
%struct.dt_bauhaus_combobox_entry_t = type { ptr, i32, i32, ptr, ptr }

@dt_bh_get_type.static_g_define_type_id = internal global i64 0, align 8

; Function Attrs: nounwind uwtable
define i64 @dt_bh_get_type() #0 {
  %1 = alloca i32, align 4
  %2 = alloca i64, align 8
  %3 = alloca ptr, align 8
  %4 = alloca i64, align 8
  %5 = alloca i64, align 8
  call void @llvm.lifetime.start.p0(i64 8, ptr %2) #13
  call void @llvm.lifetime.start.p0(i64 8, ptr %3) #13
  store ptr @dt_bh_get_type.static_g_define_type_id, ptr %3, align 8, !tbaa !6
  %6 = load ptr, ptr %3, align 8, !tbaa !6
  %7 = load atomic i64, ptr %6 seq_cst, align 8
  store i64 %7, ptr %2, align 8
  %8 = load i64, ptr %2, align 8, !tbaa !11
  store i64 %8, ptr %4, align 8, !tbaa !11
  call void @llvm.lifetime.end.p0(i64 8, ptr %3) #13
  call void @llvm.lifetime.end.p0(i64 8, ptr %2) #13
  %9 = load i64, ptr %4, align 8, !tbaa !11
  %10 = icmp ne i64 %9, 0
  br i1 %10, label %14, label %11

11:                                               ; preds = %0
  %12 = call i32 @g_once_init_enter(ptr noundef @dt_bh_get_type.static_g_define_type_id)
  %13 = icmp ne i32 %12, 0
  br label %14

14:                                               ; preds = %11, %0
  %15 = phi i1 [ false, %0 ], [ %13, %11 ]
  %16 = zext i1 %15 to i32
  store i32 %16, ptr %1, align 4, !tbaa !13
  %17 = load i32, ptr %1, align 4, !tbaa !13
  %18 = icmp ne i32 %17, 0
  br i1 %18, label %19, label %22

19:                                               ; preds = %14
  call void @llvm.lifetime.start.p0(i64 8, ptr %5) #13
  %20 = call i64 @dt_bh_get_type_once()
  store i64 %20, ptr %5, align 8, !tbaa !11
  %21 = load i64, ptr %5, align 8, !tbaa !11
  call void @g_once_init_leave(ptr noundef @dt_bh_get_type.static_g_define_type_id, i64 noundef %21)
  call void @llvm.lifetime.end.p0(i64 8, ptr %5) #13
  br label %22

22:                                               ; preds = %19, %14
  %23 = load i64, ptr @dt_bh_get_type.static_g_define_type_id, align 8, !tbaa !11
  ret i64 %23
}

; Function Attrs: inlinehint nounwind uwtable
define internal ptr @DT_BAUHAUS_WIDGET(ptr noundef %0) #4 {
  %2 = alloca ptr, align 8
  store ptr %0, ptr %2, align 8, !tbaa !32
  %3 = load ptr, ptr %2, align 8, !tbaa !32
  %4 = call i64 @dt_bh_get_type()
  %5 = call ptr @g_type_check_instance_cast(ptr noundef %3, i64 noundef %4)
  ret ptr %5
}

; Function Attrs: nounwind uwtable
define internal ptr @_combobox_entry(ptr noundef %0, i32 noundef %1) #0 {
  %3 = alloca ptr, align 8
  %4 = alloca i32, align 4
  store ptr %0, ptr %3, align 8, !tbaa !153
  store i32 %1, ptr %4, align 4, !tbaa !13
  %5 = load ptr, ptr %3, align 8, !tbaa !153
  %6 = getelementptr inbounds nuw %struct.dt_bauhaus_combobox_data_t, ptr %5, i32 0, i32 6
  %7 = load ptr, ptr %6, align 8, !tbaa !156
  %8 = getelementptr inbounds nuw %struct._GPtrArray, ptr %7, i32 0, i32 0
  %9 = load ptr, ptr %8, align 8, !tbaa !289
  %10 = load i32, ptr %4, align 4, !tbaa !13
  %11 = sext i32 %10 to i64
  %12 = getelementptr inbounds ptr, ptr %9, i64 %11
  %13 = load ptr, ptr %12, align 8, !tbaa !32
  ret ptr %13
}

; Function Attrs: nounwind uwtable
define internal ptr @_combobox_data(ptr noundef %0) #0 {
  %2 = alloca ptr, align 8
  %3 = alloca ptr, align 8
  %4 = alloca ptr, align 8
  %5 = alloca i32, align 4
  %6 = alloca ptr, align 8
  store ptr %0, ptr %3, align 8, !tbaa !15
  call void @llvm.lifetime.start.p0(i64 8, ptr %4) #13
  %7 = load ptr, ptr %3, align 8, !tbaa !15
  %8 = call ptr @DT_BAUHAUS_WIDGET(ptr noundef %7)
  store ptr %8, ptr %4, align 8, !tbaa !17
  %9 = load ptr, ptr %4, align 8, !tbaa !17
  %10 = getelementptr inbounds nuw %struct._DtBauhausWidget, ptr %9, i32 0, i32 1
  %11 = load i32, ptr %10, align 8, !tbaa !139
  %12 = icmp ne i32 %11, 2
  br i1 %12, label %13, label %14

13:                                               ; preds = %1
  store ptr null, ptr %2, align 8
  store i32 1, ptr %5, align 4
  br label %31

14:                                               ; preds = %1
  call void @llvm.lifetime.start.p0(i64 8, ptr %6) #13
  %15 = load ptr, ptr %4, align 8, !tbaa !17
  %16 = getelementptr inbounds nuw %struct._DtBauhausWidget, ptr %15, i32 0, i32 19
  store ptr %16, ptr %6, align 8, !tbaa !153
  %17 = load ptr, ptr %6, align 8, !tbaa !153
  %18 = getelementptr inbounds nuw %struct.dt_bauhaus_combobox_data_t, ptr %17, i32 0, i32 0
  %19 = load i32, ptr %18, align 8, !tbaa !163
  %20 = load ptr, ptr %6, align 8, !tbaa !153
  %21 = getelementptr inbounds nuw %struct.dt_bauhaus_combobox_data_t, ptr %20, i32 0, i32 6
  %22 = load ptr, ptr %21, align 8, !tbaa !156
  %23 = getelementptr inbounds nuw %struct._GPtrArray, ptr %22, i32 0, i32 1
  %24 = load i32, ptr %23, align 8, !tbaa !159
  %25 = icmp uge i32 %19, %24
  br i1 %25, label %26, label %29

26:                                               ; preds = %14
  %27 = load ptr, ptr %6, align 8, !tbaa !153
  %28 = getelementptr inbounds nuw %struct.dt_bauhaus_combobox_data_t, ptr %27, i32 0, i32 0
  store i32 -1, ptr %28, align 8, !tbaa !163
  br label %29

29:                                               ; preds = %26, %14
  %30 = load ptr, ptr %6, align 8, !tbaa !153
  store ptr %30, ptr %2, align 8
  store i32 1, ptr %5, align 4
  call void @llvm.lifetime.end.p0(i64 8, ptr %6) #13
  br label %31

31:                                               ; preds = %29, %13
  call void @llvm.lifetime.end.p0(i64 8, ptr %4) #13
  %32 = load ptr, ptr %2, align 8
  ret ptr %32
}

; Function Attrs: nounwind uwtable
define ptr @dt_bauhaus_combobox_get_data(ptr noundef %0) #0 {
  %2 = alloca ptr, align 8
  %3 = alloca ptr, align 8
  %4 = alloca ptr, align 8
  %5 = alloca i32, align 4
  store ptr %0, ptr %3, align 8, !tbaa !15
  call void @llvm.lifetime.start.p0(i64 8, ptr %4) #13
  %6 = load ptr, ptr %3, align 8, !tbaa !15
  %7 = call ptr @_combobox_data(ptr noundef %6)
  store ptr %7, ptr %4, align 8, !tbaa !153
  %8 = load ptr, ptr %4, align 8, !tbaa !153
  %9 = icmp ne ptr %8, null
  br i1 %9, label %10, label %15

10:                                               ; preds = %1
  %11 = load ptr, ptr %4, align 8, !tbaa !153
  %12 = getelementptr inbounds nuw %struct.dt_bauhaus_combobox_data_t, ptr %11, i32 0, i32 0
  %13 = load i32, ptr %12, align 8, !tbaa !163
  %14 = icmp slt i32 %13, 0
  br i1 %14, label %15, label %16

15:                                               ; preds = %10, %1
  store ptr null, ptr %2, align 8
  store i32 1, ptr %5, align 4
  br label %24

16:                                               ; preds = %10
  %17 = load ptr, ptr %4, align 8, !tbaa !153
  %18 = load ptr, ptr %4, align 8, !tbaa !153
  %19 = getelementptr inbounds nuw %struct.dt_bauhaus_combobox_data_t, ptr %18, i32 0, i32 0
  %20 = load i32, ptr %19, align 8, !tbaa !163
  %21 = call ptr @_combobox_entry(ptr noundef %17, i32 noundef %20)
  %22 = getelementptr inbounds nuw %struct.dt_bauhaus_combobox_entry_t, ptr %21, i32 0, i32 3
  %23 = load ptr, ptr %22, align 8, !tbaa !275
  store ptr %23, ptr %2, align 8
  store i32 1, ptr %5, align 4
  br label %24

24:                                               ; preds = %16, %15
  call void @llvm.lifetime.end.p0(i64 8, ptr %4) #13
  %25 = load ptr, ptr %2, align 8
  ret ptr %25
}