; Function Attrs: nounwind uwtable
define ptr @dt_bauhaus_combobox_get_data(ptr noundef %0) local_unnamed_addr #0 {
  %2 = load atomic i64, ptr @dt_bh_get_type.static_g_define_type_id seq_cst, align 8
  %.not.i.i.i = icmp eq i64 %2, 0
  br i1 %.not.i.i.i, label %3, label %DT_BAUHAUS_WIDGET.exit.i

3:                                                ; preds = %1
  %4 = tail call i32 @g_once_init_enter(ptr noundef nonnull @dt_bh_get_type.static_g_define_type_id) #19
  %.not4.i.i.i = icmp eq i32 %4, 0
  br i1 %.not4.i.i.i, label %DT_BAUHAUS_WIDGET.exit.i, label %5

5:                                                ; preds = %3
  %6 = tail call fastcc i64 @dt_bh_get_type_once()
  tail call void @g_once_init_leave(ptr noundef nonnull @dt_bh_get_type.static_g_define_type_id, i64 noundef %6) #19
  br label %DT_BAUHAUS_WIDGET.exit.i

DT_BAUHAUS_WIDGET.exit.i:                         ; preds = %5, %3, %1
  %7 = load i64, ptr @dt_bh_get_type.static_g_define_type_id, align 8, !tbaa !6
  %8 = tail call ptr @g_type_check_instance_cast(ptr noundef %0, i64 noundef %7) #19
  %9 = getelementptr inbounds nuw i8, ptr %8, i64 40
  %10 = load i32, ptr %9, align 8, !tbaa !105
  %.not.i = icmp eq i32 %10, 2
  br i1 %.not.i, label %11, label %_combobox_data.exit

11:                                               ; preds = %DT_BAUHAUS_WIDGET.exit.i
  %12 = getelementptr inbounds nuw i8, ptr %8, i64 408
  %13 = load i32, ptr %12, align 8, !tbaa !137
  %14 = getelementptr i8, ptr %8, i64 440
  %15 = load ptr, ptr %14, align 8, !tbaa !128
  %16 = getelementptr inbounds nuw i8, ptr %15, i64 8
  %17 = load i32, ptr %16, align 8, !tbaa !131
  %.not8.i = icmp ult i32 %13, %17
  br i1 %.not8.i, label %18, label %.thread

.thread:                                          ; preds = %11
  store i32 -1, ptr %12, align 8, !tbaa !137
  br label %_combobox_data.exit

18:                                               ; preds = %11
  %19 = icmp slt i32 %13, 0
  br i1 %19, label %_combobox_data.exit, label %20

20:                                               ; preds = %18
  %.val.val = load ptr, ptr %15, align 8, !tbaa !133
  %21 = zext nneg i32 %13 to i64
  %22 = getelementptr inbounds nuw ptr, ptr %.val.val, i64 %21
  %23 = load ptr, ptr %22, align 8, !tbaa !134
  %24 = getelementptr inbounds nuw i8, ptr %23, i64 16
  %25 = load ptr, ptr %24, align 8, !tbaa !209
  br label %_combobox_data.exit

_combobox_data.exit:                              ; preds = %.thread, %DT_BAUHAUS_WIDGET.exit.i, %18, %20
  %.0 = phi ptr [ %25, %20 ], [ null, %18 ], [ null, %DT_BAUHAUS_WIDGET.exit.i ], [ null, %.thread ]
  ret ptr %.0
}